target datalayout = "e-m:e-p270:32:32-p271:32:32-p272:64:64-i64:64-i128:128-f80:128-n8:16:32:64-S128"
target triple = "x86_64-pc-linux-gnu"

%struct.H5O_shared_t = type { i32, ptr, i32, %union.anon }
%union.anon = type { %struct.H5O_mesg_loc_t }
%struct.H5O_mesg_loc_t = type { i32, i64 }
%struct.H5O_fill_t = type { %struct.H5O_shared_t, i32, ptr, i64, ptr, i32, i32, i8 }

; Function Attrs: nounwind uwtable
define internal i32 @H5O__fill_reset(ptr noundef %0) #0 {
  %2 = alloca ptr, align 8
  %3 = alloca ptr, align 8
  store ptr %0, ptr %2, align 8
  %4 = load ptr, ptr %2, align 8
  store ptr %4, ptr %3, align 8
  %5 = load ptr, ptr %3, align 8
  %6 = call i32 @H5O_fill_reset_dyn(ptr noundef %5)
  %7 = load ptr, ptr %3, align 8
  %8 = getelementptr inbounds %struct.H5O_fill_t, ptr %7, i32 0, i32 5
  store i32 2, ptr %8, align 8
  %9 = load ptr, ptr %3, align 8
  %10 = getelementptr inbounds %struct.H5O_fill_t, ptr %9, i32 0, i32 6
  store i32 2, ptr %10, align 4
  %11 = load ptr, ptr %3, align 8
  %12 = getelementptr inbounds %struct.H5O_fill_t, ptr %11, i32 0, i32 7
  store i8 0, ptr %12, align 8
  ret i32 0
}