; Function Attrs: nounwind uwtable
define internal noundef i32 @H5O__fill_reset(ptr nocapture noundef %0) #0 {
  %2 = tail call i32 @H5O_fill_reset_dyn(ptr noundef %0)
  %3 = getelementptr inbounds i8, ptr %0, i64 72
  store i32 2, ptr %3, align 8
  %4 = getelementptr inbounds i8, ptr %0, i64 76
  store i32 2, ptr %4, align 4
  %5 = getelementptr inbounds i8, ptr %0, i64 80
  store i8 0, ptr %5, align 8
  ret i32 0
}